target datalayout = "e-m:e-p270:32:32-p271:32:32-p272:64:64-i64:64-i128:128-f80:128-n8:16:32:64-S128"
target triple = "x86_64-pc-linux-gnu"

; Function Attrs: nounwind uwtable
define hidden ptr @uv__strtok(ptr noundef %0, ptr noundef %1, ptr noundef %2) #0 {
  %4 = alloca ptr, align 8
  %5 = alloca ptr, align 8
  %6 = alloca ptr, align 8
  %7 = alloca ptr, align 8
  %8 = alloca ptr, align 8
  %9 = alloca ptr, align 8
  %10 = alloca ptr, align 8
  %11 = alloca i32, align 4
  store ptr %0, ptr %5, align 8
  store ptr %1, ptr %6, align 8
  store ptr %2, ptr %7, align 8
  call void @llvm.lifetime.start.p0(i64 8, ptr %8) #2
  call void @llvm.lifetime.start.p0(i64 8, ptr %9) #2
  call void @llvm.lifetime.start.p0(i64 8, ptr %10) #2
  %12 = load ptr, ptr %5, align 8
  %13 = icmp eq ptr %12, null
  br i1 %13, label %14, label %17

14:                                               ; preds = %3
  %15 = load ptr, ptr %7, align 8
  %16 = load ptr, ptr %15, align 8
  store ptr %16, ptr %9, align 8
  store ptr %16, ptr %10, align 8
  br label %19

17:                                               ; preds = %3
  %18 = load ptr, ptr %5, align 8
  store ptr %18, ptr %9, align 8
  store ptr %18, ptr %10, align 8
  br label %19

19:                                               ; preds = %17, %14
  %20 = load ptr, ptr %9, align 8
  %21 = icmp eq ptr %20, null
  br i1 %21, label %22, label %23

22:                                               ; preds = %19
  store ptr null, ptr %4, align 8
  store i32 1, ptr %11, align 4
  br label %59

23:                                               ; preds = %19
  br label %24

24:                                               ; preds = %53, %23
  %25 = load ptr, ptr %9, align 8
  %26 = load i8, ptr %25, align 1
  %27 = sext i8 %26 to i32
  %28 = icmp ne i32 %27, 0
  br i1 %28, label %29, label %56

29:                                               ; preds = %24
  %30 = load ptr, ptr %6, align 8
  store ptr %30, ptr %8, align 8
  br label %31

31:                                               ; preds = %50, %29
  %32 = load ptr, ptr %8, align 8
  %33 = load i8, ptr %32, align 1
  %34 = sext i8 %33 to i32
  %35 = icmp ne i32 %34, 0
  br i1 %35, label %36, label %53

36:                                               ; preds = %31
  %37 = load ptr, ptr %9, align 8
  %38 = load i8, ptr %37, align 1
  %39 = sext i8 %38 to i32
  %40 = load ptr, ptr %8, align 8
  %41 = load i8, ptr %40, align 1
  %42 = sext i8 %41 to i32
  %43 = icmp eq i32 %39, %42
  br i1 %43, label %44, label %50

44:                                               ; preds = %36
  %45 = load ptr, ptr %9, align 8
  %46 = getelementptr inbounds i8, ptr %45, i64 1
  %47 = load ptr, ptr %7, align 8
  store ptr %46, ptr %47, align 8
  %48 = load ptr, ptr %9, align 8
  store i8 0, ptr %48, align 1
  %49 = load ptr, ptr %10, align 8
  store ptr %49, ptr %4, align 8
  store i32 1, ptr %11, align 4
  br label %59

50:                                               ; preds = %36
  %51 = load ptr, ptr %8, align 8
  %52 = getelementptr inbounds nuw i8, ptr %51, i32 1
  store ptr %52, ptr %8, align 8
  br label %31

53:                                               ; preds = %31
  %54 = load ptr, ptr %9, align 8
  %55 = getelementptr inbounds nuw i8, ptr %54, i32 1
  store ptr %55, ptr %9, align 8
  br label %24

56:                                               ; preds = %24
  %57 = load ptr, ptr %7, align 8
  store ptr null, ptr %57, align 8
  %58 = load ptr, ptr %10, align 8
  store ptr %58, ptr %4, align 8
  store i32 1, ptr %11, align 4
  br label %59

59:                                               ; preds = %56, %44, %22
  call void @llvm.lifetime.end.p0(i64 8, ptr %10) #2
  call void @llvm.lifetime.end.p0(i64 8, ptr %9) #2
  call void @llvm.lifetime.end.p0(i64 8, ptr %8) #2
  %60 = load ptr, ptr %4, align 8
  ret ptr %60
}

; Function Attrs: nocallback nofree nosync nounwind willreturn memory(argmem: readwrite)
declare void @llvm.lifetime.start.p0(i64 immarg, ptr captures(none)) #1

; Function Attrs: nocallback nofree nosync nounwind willreturn memory(argmem: readwrite)
declare void @llvm.lifetime.end.p0(i64 immarg, ptr captures(none)) #1


!llvm.module.flags = !{!0, !1, !2, !3}

!0 = !{i32 1, !"wchar_size", i32 4}
!1 = !{i32 8, !"PIC Level", i32 2}
!2 = !{i32 7, !"PIE Level", i32 2}
!3 = !{i32 7, !"uwtable", i32 2}
